target datalayout = "e-m:e-p270:32:32-p271:32:32-p272:64:64-i64:64-i128:128-f80:128-n8:16:32:64-S128"
target triple = "x86_64-pc-linux-gnu"

@.str.39 = private unnamed_addr constant [8 x i8] c"Unknown\00", align 1
@diameterstat_cmd_str_hash = internal global ptr null, align 8
@.str.310 = private unnamed_addr constant [18 x i8] c"Diameter Requests\00", align 1

; Function Attrs: null_pointer_is_valid sspstrong uwtable
define internal void @diameterstat_init(ptr noundef %0, ptr noundef %1) #0 {
  %3 = alloca ptr, align 8
  %4 = alloca ptr, align 8
  %5 = alloca ptr, align 8
  %6 = alloca ptr, align 8
  store ptr %0, ptr %3, align 8
  store ptr %1, ptr %4, align 8
  call void @llvm.lifetime.start.p0(i64 8, ptr %5) #14
  call void @llvm.lifetime.start.p0(i64 8, ptr %6) #14
  %7 = load ptr, ptr @diameterstat_cmd_str_hash, align 8
  %8 = icmp ne ptr %7, null
  br i1 %8, label %9, label %11

9:                                                ; preds = %2
  %10 = load ptr, ptr @diameterstat_cmd_str_hash, align 8
  call void @g_hash_table_destroy(ptr noundef %10)
  br label %11

11:                                               ; preds = %9, %2
  %12 = call ptr @wmem_epan_scope()
  %13 = call noalias ptr @wmem_alloc0(ptr noundef %12, i64 noundef 4) #15
  store ptr %13, ptr %6, align 8
  %14 = call ptr @g_hash_table_new(ptr noundef @g_str_hash, ptr noundef @g_str_equal)
  store ptr %14, ptr @diameterstat_cmd_str_hash, align 8
  %15 = load ptr, ptr @diameterstat_cmd_str_hash, align 8
  %16 = load ptr, ptr %6, align 8
  %17 = call i32 @g_hash_table_insert(ptr noundef %15, ptr noundef @.str.39, ptr noundef %16)
  %18 = load ptr, ptr %4, align 8
  %19 = call ptr @init_srt_table(ptr noundef @.str.310, ptr noundef null, ptr noundef %18, i32 noundef 1, ptr noundef null, ptr noundef null, ptr noundef null)
  store ptr %19, ptr %5, align 8
  %20 = load ptr, ptr %5, align 8
  call void @init_srt_table_row(ptr noundef %20, i32 noundef 0, ptr noundef @.str.39)
  call void @llvm.lifetime.end.p0(i64 8, ptr %6) #14
  call void @llvm.lifetime.end.p0(i64 8, ptr %5) #14
  ret void
}