; Function Attrs: null_pointer_is_valid sspstrong uwtable
define internal void @diameterstat_init(ptr readnone captures(none) %0, ptr noundef %1) #0 {
  %3 = load ptr, ptr @diameterstat_cmd_str_hash, align 8
  %.not = icmp eq ptr %3, null
  br i1 %.not, label %5, label %4

4:                                                ; preds = %2
  tail call void @g_hash_table_destroy(ptr noundef nonnull %3)
  br label %5

5:                                                ; preds = %4, %2
  %6 = tail call ptr @wmem_epan_scope()
  %7 = tail call noalias dereferenceable_or_null(4) ptr @wmem_alloc0(ptr noundef %6, i64 noundef 4) #15
  %8 = tail call ptr @g_hash_table_new(ptr noundef nonnull @g_str_hash, ptr noundef nonnull @g_str_equal)
  store ptr %8, ptr @diameterstat_cmd_str_hash, align 8
  %9 = tail call i32 @g_hash_table_insert(ptr noundef %8, ptr noundef nonnull @.str.39, ptr noundef %7)
  %10 = tail call ptr @init_srt_table(ptr noundef nonnull @.str.310, ptr noundef null, ptr noundef %1, i32 noundef 1, ptr noundef null, ptr noundef null, ptr noundef null)
  tail call void @init_srt_table_row(ptr noundef %10, i32 noundef 0, ptr noundef nonnull @.str.39)
  ret void
}